target datalayout = "e-m:e-p270:32:32-p271:32:32-p272:64:64-i64:64-i128:128-f80:128-n8:16:32:64-S128"
target triple = "x86_64-pc-linux-gnu"

; Function Attrs: inlinehint nounwind uwtable
define internal void @quantize_and_encode_band(ptr noundef %0, ptr noundef %1, ptr noundef %2, ptr noundef %3, i32 noundef %4, i32 noundef %5, i32 noundef %6, float noundef %7, i32 noundef %8) #1 {
  %10 = alloca ptr, align 8
  %11 = alloca ptr, align 8
  %12 = alloca ptr, align 8
  %13 = alloca ptr, align 8
  %14 = alloca i32, align 4
  %15 = alloca i32, align 4
  %16 = alloca i32, align 4
  %17 = alloca float, align 4
  %18 = alloca i32, align 4
  store ptr %0, ptr %10, align 8, !tbaa !4
  store ptr %1, ptr %11, align 8, !tbaa !9
  store ptr %2, ptr %12, align 8, !tbaa !11
  store ptr %3, ptr %13, align 8, !tbaa !11
  store i32 %4, ptr %14, align 4, !tbaa !13
  store i32 %5, ptr %15, align 4, !tbaa !13
  store i32 %6, ptr %16, align 4, !tbaa !13
  store float %7, ptr %17, align 4, !tbaa !15
  store i32 %8, ptr %18, align 4, !tbaa !13
  %19 = load i32, ptr %18, align 4, !tbaa !13
  %20 = icmp ne i32 %19, 0
  %21 = select i1 %20, ptr @quantize_and_encode_band_cost_rtz_arr, ptr @quantize_and_encode_band_cost_arr
  %22 = load i32, ptr %16, align 4, !tbaa !13
  %23 = sext i32 %22 to i64
  %24 = getelementptr inbounds ptr, ptr %21, i64 %23
  %25 = load ptr, ptr %24, align 8, !tbaa !19
  %26 = load ptr, ptr %10, align 8, !tbaa !4
  %27 = load ptr, ptr %11, align 8, !tbaa !9
  %28 = load ptr, ptr %12, align 8, !tbaa !11
  %29 = load ptr, ptr %13, align 8, !tbaa !11
  %30 = load i32, ptr %14, align 4, !tbaa !13
  %31 = load i32, ptr %15, align 4, !tbaa !13
  %32 = load i32, ptr %16, align 4, !tbaa !13
  %33 = load float, ptr %17, align 4, !tbaa !15
  %34 = call nsz float %25(ptr noundef %26, ptr noundef %27, ptr noundef %28, ptr noundef %29, ptr noundef null, i32 noundef %30, i32 noundef %31, i32 noundef %32, float noundef %33, float noundef 0x7FF0000000000000, ptr noundef null, ptr noundef null)
  ret void
}