; Function Attrs: inlinehint nounwind uwtable
define internal void @quantize_and_encode_band(ptr noundef %0, ptr noundef %1, ptr noundef %2, ptr noundef %3, i32 noundef %4, i32 noundef %5, i32 noundef %6, float noundef %7, i32 noundef %8) #1 {
  %.not = icmp eq i32 %8, 0
  %10 = select i1 %.not, ptr @quantize_and_encode_band_cost_arr, ptr @quantize_and_encode_band_cost_rtz_arr
  %11 = sext i32 %6 to i64
  %12 = getelementptr inbounds ptr, ptr %10, i64 %11
  %13 = load ptr, ptr %12, align 8, !tbaa !4
  %14 = tail call nsz float %13(ptr noundef %0, ptr noundef %1, ptr noundef %2, ptr noundef %3, ptr noundef null, i32 noundef %4, i32 noundef %5, i32 noundef %6, float noundef %7, float noundef 0x7FF0000000000000, ptr noundef null, ptr noundef null) #13
  ret void
}